; Function Attrs: mustprogress nofree nounwind uwtable
define dso_local noundef nonnull align 8 dereferenceable(32) ptr @_ZNK14CxxBmiLocation8LocationB5cxx11Ev(ptr noundef nonnull readonly align 8 dereferenceable(40) %0) local_unnamed_addr #9 align 2 personality ptr @__gxx_personality_v0 {
  %2 = getelementptr inbounds nuw i8, ptr %0, i64 32
  %3 = load i8, ptr %2, align 8, !tbaa !4, !range !18, !noundef !19
  %4 = trunc nuw i8 %3 to i1
  br i1 %4, label %12, label %5

5:                                                ; preds = %1
  %6 = load atomic i8, ptr @_ZGVZNK14CxxBmiLocation8LocationB5cxx11EvE5emptyB5cxx11 acquire, align 8
  %7 = icmp eq i8 %6, 0
  br i1 %7, label %8, label %12, !prof !20

8:                                                ; preds = %5
  %9 = tail call i32 @__cxa_guard_acquire(ptr nonnull @_ZGVZNK14CxxBmiLocation8LocationB5cxx11EvE5emptyB5cxx11) #27
  %.not = icmp eq i32 %9, 0
  br i1 %.not, label %12, label %10

10:                                               ; preds = %8
  store ptr getelementptr inbounds nuw (i8, ptr @_ZZNK14CxxBmiLocation8LocationB5cxx11EvE5emptyB5cxx11, i64 16), ptr @_ZZNK14CxxBmiLocation8LocationB5cxx11EvE5emptyB5cxx11, align 8, !tbaa !9
  store i64 0, ptr getelementptr inbounds nuw (i8, ptr @_ZZNK14CxxBmiLocation8LocationB5cxx11EvE5emptyB5cxx11, i64 8), align 8, !tbaa !16
  store i8 0, ptr getelementptr inbounds nuw (i8, ptr @_ZZNK14CxxBmiLocation8LocationB5cxx11EvE5emptyB5cxx11, i64 16), align 8, !tbaa !17
  %11 = tail call i32 @__cxa_atexit(ptr nonnull @_ZNSt7__cxx1112basic_stringIcSt11char_traitsIcESaIcEED2Ev, ptr nonnull @_ZZNK14CxxBmiLocation8LocationB5cxx11EvE5emptyB5cxx11, ptr nonnull @__dso_handle) #27
  tail call void @__cxa_guard_release(ptr nonnull @_ZGVZNK14CxxBmiLocation8LocationB5cxx11EvE5emptyB5cxx11) #27
  br label %12

12:                                               ; preds = %5, %8, %10, %1
  %.1 = phi ptr [ %0, %1 ], [ @_ZZNK14CxxBmiLocation8LocationB5cxx11EvE5emptyB5cxx11, %10 ], [ @_ZZNK14CxxBmiLocation8LocationB5cxx11EvE5emptyB5cxx11, %8 ], [ @_ZZNK14CxxBmiLocation8LocationB5cxx11EvE5emptyB5cxx11, %5 ]
  ret ptr %.1
}